target datalayout = "e-m:e-p270:32:32-p271:32:32-p272:64:64-i64:64-i128:128-f80:128-n8:16:32:64-S128"
target triple = "x86_64-pc-linux-gnu"

%struct.dt_import_metadata_t = type { ptr, ptr, ptr, ptr, ptr }

; Function Attrs: nounwind uwtable
define internal void @_import_metadata_changed(ptr noundef %0, ptr noundef %1) #0 {
  %3 = alloca ptr, align 8
  %4 = alloca ptr, align 8
  %5 = alloca ptr, align 8
  store ptr %0, ptr %3, align 8, !tbaa !11
  store ptr %1, ptr %4, align 8, !tbaa !6
  %6 = load ptr, ptr %3, align 8, !tbaa !11
  %7 = load ptr, ptr %4, align 8, !tbaa !6
  call void @_metadata_save(ptr noundef %6, ptr noundef %7)
  call void @llvm.lifetime.start.p0(i64 8, ptr %5) #7
  %8 = load ptr, ptr %4, align 8, !tbaa !6
  %9 = getelementptr inbounds nuw %struct.dt_import_metadata_t, ptr %8, i32 0, i32 2
  %10 = load ptr, ptr %9, align 8, !tbaa !13
  %11 = call i64 @gtk_grid_get_type() #8
  %12 = call ptr @g_type_check_instance_cast(ptr noundef %10, i64 noundef %11)
  %13 = call ptr @gtk_grid_get_child_at(ptr noundef %12, i32 noundef 1, i32 noundef 0)
  store ptr %13, ptr %5, align 8, !tbaa !11
  %14 = load ptr, ptr %5, align 8, !tbaa !11
  %15 = call i64 @gtk_combo_box_get_type() #8
  %16 = call ptr @g_type_check_instance_cast(ptr noundef %14, i64 noundef %15)
  call void @gtk_combo_box_set_active(ptr noundef %16, i32 noundef -1)
  call void @llvm.lifetime.end.p0(i64 8, ptr %5) #7
  ret void
}